target datalayout = "e-m:e-p270:32:32-p271:32:32-p272:64:64-i64:64-i128:128-f80:128-n8:16:32:64-S128"
target triple = "x86_64-pc-linux-gnu"

%"struct.llvm::rdf::NodeAddr.65" = type <{ ptr, i32, [4 x i8] }>
%"struct.llvm::rdf::DataFlowGraph::DefStack" = type { %"class.std::vector.240" }
%"class.std::vector.240" = type { %"struct.std::_Vector_base.241" }
%"struct.std::_Vector_base.241" = type { %"struct.std::_Vector_base<llvm::rdf::NodeAddr<llvm::rdf::DefNode *>, std::allocator<llvm::rdf::NodeAddr<llvm::rdf::DefNode *>>>::_Vector_impl" }
%"struct.std::_Vector_base<llvm::rdf::NodeAddr<llvm::rdf::DefNode *>, std::allocator<llvm::rdf::NodeAddr<llvm::rdf::DefNode *>>>::_Vector_impl" = type { %"struct.std::_Vector_base<llvm::rdf::NodeAddr<llvm::rdf::DefNode *>, std::allocator<llvm::rdf::NodeAddr<llvm::rdf::DefNode *>>>::_Vector_impl_data" }
%"struct.std::_Vector_base<llvm::rdf::NodeAddr<llvm::rdf::DefNode *>, std::allocator<llvm::rdf::NodeAddr<llvm::rdf::DefNode *>>>::_Vector_impl_data" = type { ptr, ptr, ptr }

; Function Attrs: mustprogress nounwind uwtable
define linkonce_odr hidden void @_ZNSt12_Destroy_auxILb1EE9__destroyIPN4llvm3rdf8NodeAddrIPNS3_7DefNodeEEEEEvT_S9_(ptr noundef %0, ptr noundef %1) #0 comdat align 2 {
  %3 = alloca ptr, align 8
  %4 = alloca ptr, align 8
  store ptr %0, ptr %3, align 8
  store ptr %1, ptr %4, align 8
  ret void
}

; Function Attrs: mustprogress nounwind uwtable
define linkonce_odr void @_ZSt8_DestroyIPN4llvm3rdf8NodeAddrIPNS1_7DefNodeEEEEvT_S7_(ptr noundef %0, ptr noundef %1) #0 comdat {
  %3 = alloca ptr, align 8
  %4 = alloca ptr, align 8
  store ptr %0, ptr %3, align 8
  store ptr %1, ptr %4, align 8
  %5 = load ptr, ptr %3, align 8
  %6 = load ptr, ptr %4, align 8
  call void @_ZNSt12_Destroy_auxILb1EE9__destroyIPN4llvm3rdf8NodeAddrIPNS3_7DefNodeEEEEEvT_S9_(ptr noundef %5, ptr noundef %6)
  ret void
}

; Function Attrs: mustprogress nounwind uwtable
define linkonce_odr void @_ZSt8_DestroyIPN4llvm3rdf8NodeAddrIPNS1_7DefNodeEEES5_EvT_S7_RSaIT0_E(ptr noundef %0, ptr noundef %1, ptr noundef nonnull align 1 dereferenceable(1) %2) #0 comdat {
  %4 = alloca ptr, align 8
  %5 = alloca ptr, align 8
  %6 = alloca ptr, align 8
  store ptr %0, ptr %4, align 8
  store ptr %1, ptr %5, align 8
  store ptr %2, ptr %6, align 8
  %7 = load ptr, ptr %4, align 8
  %8 = load ptr, ptr %5, align 8
  call void @_ZSt8_DestroyIPN4llvm3rdf8NodeAddrIPNS1_7DefNodeEEEEvT_S7_(ptr noundef %7, ptr noundef %8)
  ret void
}

; Function Attrs: mustprogress nounwind uwtable
define linkonce_odr hidden noundef nonnull align 1 dereferenceable(1) ptr @_ZNSt12_Vector_baseIN4llvm3rdf8NodeAddrIPNS1_7DefNodeEEESaIS5_EE19_M_get_Tp_allocatorEv(ptr noundef nonnull align 8 dereferenceable(24) %0) #0 comdat align 2 {
  %2 = alloca ptr, align 8
  store ptr %0, ptr %2, align 8
  %3 = load ptr, ptr %2, align 8
  %4 = getelementptr inbounds nuw %"struct.std::_Vector_base.241", ptr %3, i32 0, i32 0
  ret ptr %4
}

; Function Attrs: mustprogress nounwind uwtable
define linkonce_odr hidden void @_ZNSt6vectorIN4llvm3rdf8NodeAddrIPNS1_7DefNodeEEESaIS5_EE15_M_erase_at_endEPS5_(ptr noundef nonnull align 8 dereferenceable(24) %0, ptr noundef %1) #0 comdat align 2 {
  %3 = alloca ptr, align 8
  %4 = alloca ptr, align 8
  %5 = alloca i64, align 8
  store ptr %0, ptr %3, align 8
  store ptr %1, ptr %4, align 8
  %6 = load ptr, ptr %3, align 8
  %7 = getelementptr inbounds nuw %"struct.std::_Vector_base.241", ptr %6, i32 0, i32 0
  %8 = getelementptr inbounds nuw %"struct.std::_Vector_base<llvm::rdf::NodeAddr<llvm::rdf::DefNode *>, std::allocator<llvm::rdf::NodeAddr<llvm::rdf::DefNode *>>>::_Vector_impl_data", ptr %7, i32 0, i32 1
  %9 = load ptr, ptr %8, align 8
  %10 = load ptr, ptr %4, align 8
  %11 = ptrtoint ptr %9 to i64
  %12 = ptrtoint ptr %10 to i64
  %13 = sub i64 %11, %12
  %14 = sdiv exact i64 %13, 16
  store i64 %14, ptr %5, align 8
  %15 = load i64, ptr %5, align 8
  %16 = icmp ne i64 %15, 0
  br i1 %16, label %17, label %26

17:                                               ; preds = %2
  %18 = load ptr, ptr %4, align 8
  %19 = getelementptr inbounds nuw %"struct.std::_Vector_base.241", ptr %6, i32 0, i32 0
  %20 = getelementptr inbounds nuw %"struct.std::_Vector_base<llvm::rdf::NodeAddr<llvm::rdf::DefNode *>, std::allocator<llvm::rdf::NodeAddr<llvm::rdf::DefNode *>>>::_Vector_impl_data", ptr %19, i32 0, i32 1
  %21 = load ptr, ptr %20, align 8
  %22 = call noundef nonnull align 1 dereferenceable(1) ptr @_ZNSt12_Vector_baseIN4llvm3rdf8NodeAddrIPNS1_7DefNodeEEESaIS5_EE19_M_get_Tp_allocatorEv(ptr noundef nonnull align 8 dereferenceable(24) %6) #11
  call void @_ZSt8_DestroyIPN4llvm3rdf8NodeAddrIPNS1_7DefNodeEEES5_EvT_S7_RSaIT0_E(ptr noundef %18, ptr noundef %21, ptr noundef nonnull align 1 dereferenceable(1) %22)
  %23 = load ptr, ptr %4, align 8
  %24 = getelementptr inbounds nuw %"struct.std::_Vector_base.241", ptr %6, i32 0, i32 0
  %25 = getelementptr inbounds nuw %"struct.std::_Vector_base<llvm::rdf::NodeAddr<llvm::rdf::DefNode *>, std::allocator<llvm::rdf::NodeAddr<llvm::rdf::DefNode *>>>::_Vector_impl_data", ptr %24, i32 0, i32 1
  store ptr %23, ptr %25, align 8
  br label %26

26:                                               ; preds = %17, %2
  ret void
}

; Function Attrs: mustprogress nounwind uwtable
define linkonce_odr hidden void @_ZNSt6vectorIN4llvm3rdf8NodeAddrIPNS1_7DefNodeEEESaIS5_EE6resizeEm(ptr noundef nonnull align 8 dereferenceable(24) %0, i64 noundef %1) #0 comdat align 2 {
  %3 = alloca ptr, align 8
  %4 = alloca i64, align 8
  store ptr %0, ptr %3, align 8
  store i64 %1, ptr %4, align 8
  %5 = load ptr, ptr %3, align 8
  %6 = load i64, ptr %4, align 8
  %7 = call noundef i64 @_ZNKSt6vectorIN4llvm3rdf8NodeAddrIPNS1_7DefNodeEEESaIS5_EE4sizeEv(ptr noundef nonnull align 8 dereferenceable(24) %5) #11
  %8 = icmp ugt i64 %6, %7
  br i1 %8, label %9, label %13

9:                                                ; preds = %2
  %10 = load i64, ptr %4, align 8
  %11 = call noundef i64 @_ZNKSt6vectorIN4llvm3rdf8NodeAddrIPNS1_7DefNodeEEESaIS5_EE4sizeEv(ptr noundef nonnull align 8 dereferenceable(24) %5) #11
  %12 = sub i64 %10, %11
  call void @_ZNSt6vectorIN4llvm3rdf8NodeAddrIPNS1_7DefNodeEEESaIS5_EE17_M_default_appendEm(ptr noundef nonnull align 8 dereferenceable(24) %5, i64 noundef %12)
  br label %24

13:                                               ; preds = %2
  %14 = load i64, ptr %4, align 8
  %15 = call noundef i64 @_ZNKSt6vectorIN4llvm3rdf8NodeAddrIPNS1_7DefNodeEEESaIS5_EE4sizeEv(ptr noundef nonnull align 8 dereferenceable(24) %5) #11
  %16 = icmp ult i64 %14, %15
  br i1 %16, label %17, label %23

17:                                               ; preds = %13
  %18 = getelementptr inbounds nuw %"struct.std::_Vector_base.241", ptr %5, i32 0, i32 0
  %19 = getelementptr inbounds nuw %"struct.std::_Vector_base<llvm::rdf::NodeAddr<llvm::rdf::DefNode *>, std::allocator<llvm::rdf::NodeAddr<llvm::rdf::DefNode *>>>::_Vector_impl_data", ptr %18, i32 0, i32 0
  %20 = load ptr, ptr %19, align 8
  %21 = load i64, ptr %4, align 8
  %22 = getelementptr inbounds %"struct.llvm::rdf::NodeAddr.65", ptr %20, i64 %21
  call void @_ZNSt6vectorIN4llvm3rdf8NodeAddrIPNS1_7DefNodeEEESaIS5_EE15_M_erase_at_endEPS5_(ptr noundef nonnull align 8 dereferenceable(24) %5, ptr noundef %22) #11
  br label %23

23:                                               ; preds = %17, %13
  br label %24

24:                                               ; preds = %23, %9
  ret void
}

; Function Attrs: mustprogress nounwind uwtable
define linkonce_odr hidden noundef zeroext i1 @_ZNK4llvm3rdf13DataFlowGraph8DefStack11isDelimiterERKNS0_8NodeAddrIPNS0_7DefNodeEEEj(ptr noundef nonnull align 8 dereferenceable(24) %0, ptr noundef nonnull align 8 dereferenceable(12) %1, i32 noundef %2) #0 comdat align 2 {
  %4 = alloca ptr, align 8
  %5 = alloca ptr, align 8
  %6 = alloca i32, align 4
  store ptr %0, ptr %4, align 8
  store ptr %1, ptr %5, align 8
  store i32 %2, ptr %6, align 4
  %7 = load ptr, ptr %5, align 8
  %8 = getelementptr inbounds nuw %"struct.llvm::rdf::NodeAddr.65", ptr %7, i32 0, i32 0
  %9 = load ptr, ptr %8, align 8
  %10 = icmp eq ptr %9, null
  br i1 %10, label %11, label %22

11:                                               ; preds = %3
  %12 = load i32, ptr %6, align 4
  %13 = icmp eq i32 %12, 0
  br i1 %13, label %20, label %14

14:                                               ; preds = %11
  %15 = load ptr, ptr %5, align 8
  %16 = getelementptr inbounds nuw %"struct.llvm::rdf::NodeAddr.65", ptr %15, i32 0, i32 1
  %17 = load i32, ptr %16, align 8
  %18 = load i32, ptr %6, align 4
  %19 = icmp eq i32 %17, %18
  br label %20

20:                                               ; preds = %14, %11
  %21 = phi i1 [ true, %11 ], [ %19, %14 ]
  br label %22

22:                                               ; preds = %20, %3
  %23 = phi i1 [ false, %3 ], [ %21, %20 ]
  ret i1 %23
}

; Function Attrs: mustprogress nounwind uwtable
define linkonce_odr hidden noundef nonnull align 8 dereferenceable(12) ptr @_ZNSt6vectorIN4llvm3rdf8NodeAddrIPNS1_7DefNodeEEESaIS5_EEixEm(ptr noundef nonnull align 8 dereferenceable(24) %0, i64 noundef %1) #0 comdat align 2 {
  %3 = alloca ptr, align 8
  %4 = alloca i64, align 8
  store ptr %0, ptr %3, align 8
  store i64 %1, ptr %4, align 8
  %5 = load ptr, ptr %3, align 8
  %6 = getelementptr inbounds nuw %"struct.std::_Vector_base.241", ptr %5, i32 0, i32 0
  %7 = getelementptr inbounds nuw %"struct.std::_Vector_base<llvm::rdf::NodeAddr<llvm::rdf::DefNode *>, std::allocator<llvm::rdf::NodeAddr<llvm::rdf::DefNode *>>>::_Vector_impl_data", ptr %6, i32 0, i32 0
  %8 = load ptr, ptr %7, align 8
  %9 = load i64, ptr %4, align 8
  %10 = getelementptr inbounds %"struct.llvm::rdf::NodeAddr.65", ptr %8, i64 %9
  ret ptr %10
}

; Function Attrs: mustprogress nounwind uwtable
define linkonce_odr hidden noundef i64 @_ZNKSt6vectorIN4llvm3rdf8NodeAddrIPNS1_7DefNodeEEESaIS5_EE4sizeEv(ptr noundef nonnull align 8 dereferenceable(24) %0) #0 comdat align 2 {
  %2 = alloca ptr, align 8
  store ptr %0, ptr %2, align 8
  %3 = load ptr, ptr %2, align 8
  %4 = getelementptr inbounds nuw %"struct.std::_Vector_base.241", ptr %3, i32 0, i32 0
  %5 = getelementptr inbounds nuw %"struct.std::_Vector_base<llvm::rdf::NodeAddr<llvm::rdf::DefNode *>, std::allocator<llvm::rdf::NodeAddr<llvm::rdf::DefNode *>>>::_Vector_impl_data", ptr %4, i32 0, i32 1
  %6 = load ptr, ptr %5, align 8
  %7 = getelementptr inbounds nuw %"struct.std::_Vector_base.241", ptr %3, i32 0, i32 0
  %8 = getelementptr inbounds nuw %"struct.std::_Vector_base<llvm::rdf::NodeAddr<llvm::rdf::DefNode *>, std::allocator<llvm::rdf::NodeAddr<llvm::rdf::DefNode *>>>::_Vector_impl_data", ptr %7, i32 0, i32 0
  %9 = load ptr, ptr %8, align 8
  %10 = ptrtoint ptr %6 to i64
  %11 = ptrtoint ptr %9 to i64
  %12 = sub i64 %10, %11
  %13 = sdiv exact i64 %12, 16
  ret i64 %13
}

; Function Attrs: mustprogress nounwind uwtable
define dso_local void @_ZN4llvm3rdf13DataFlowGraph8DefStack11clear_blockEj(ptr noundef nonnull align 8 dereferenceable(24) %0, i32 noundef %1) #0 align 2 {
  %3 = alloca ptr, align 8
  %4 = alloca i32, align 4
  %5 = alloca i32, align 4
  %6 = alloca i8, align 1
  store ptr %0, ptr %3, align 8
  store i32 %1, ptr %4, align 4
  %7 = load ptr, ptr %3, align 8
  %8 = getelementptr inbounds nuw %"struct.llvm::rdf::DataFlowGraph::DefStack", ptr %7, i32 0, i32 0
  %9 = call noundef i64 @_ZNKSt6vectorIN4llvm3rdf8NodeAddrIPNS1_7DefNodeEEESaIS5_EE4sizeEv(ptr noundef nonnull align 8 dereferenceable(24) %8) #11
  %10 = trunc i64 %9 to i32
  store i32 %10, ptr %5, align 4
  br label %11

11:                                               ; preds = %28, %2
  %12 = load i32, ptr %5, align 4
  %13 = icmp ugt i32 %12, 0
  br i1 %13, label %14, label %29

14:                                               ; preds = %11
  %15 = getelementptr inbounds nuw %"struct.llvm::rdf::DataFlowGraph::DefStack", ptr %7, i32 0, i32 0
  %16 = load i32, ptr %5, align 4
  %17 = sub i32 %16, 1
  %18 = zext i32 %17 to i64
  %19 = call noundef nonnull align 8 dereferenceable(12) ptr @_ZNSt6vectorIN4llvm3rdf8NodeAddrIPNS1_7DefNodeEEESaIS5_EEixEm(ptr noundef nonnull align 8 dereferenceable(24) %15, i64 noundef %18) #11
  %20 = load i32, ptr %4, align 4
  %21 = call noundef zeroext i1 @_ZNK4llvm3rdf13DataFlowGraph8DefStack11isDelimiterERKNS0_8NodeAddrIPNS0_7DefNodeEEEj(ptr noundef nonnull align 8 dereferenceable(24) %7, ptr noundef nonnull align 8 dereferenceable(12) %19, i32 noundef %20)
  %22 = zext i1 %21 to i8
  store i8 %22, ptr %6, align 1
  %23 = load i32, ptr %5, align 4
  %24 = add i32 %23, -1
  store i32 %24, ptr %5, align 4
  %25 = load i8, ptr %6, align 1
  %26 = trunc i8 %25 to i1
  br i1 %26, label %27, label %28

27:                                               ; preds = %14
  br label %29

28:                                               ; preds = %14
  br label %11, !llvm.loop !16

29:                                               ; preds = %27, %11
  %30 = getelementptr inbounds nuw %"struct.llvm::rdf::DataFlowGraph::DefStack", ptr %7, i32 0, i32 0
  %31 = load i32, ptr %5, align 4
  %32 = zext i32 %31 to i64
  call void @_ZNSt6vectorIN4llvm3rdf8NodeAddrIPNS1_7DefNodeEEESaIS5_EE6resizeEm(ptr noundef nonnull align 8 dereferenceable(24) %30, i64 noundef %32)
  ret void
}