; Function Attrs: mustprogress nounwind uwtable
define dso_local void @_ZN4llvm3rdf13DataFlowGraph8DefStack11clear_blockEj(ptr noundef nonnull align 8 dereferenceable(24) %0, i32 noundef %1) local_unnamed_addr #0 align 2 {
  %3 = getelementptr inbounds nuw i8, ptr %0, i64 8
  %4 = load ptr, ptr %3, align 8
  %5 = load ptr, ptr %0, align 8
  %6 = ptrtoint ptr %4 to i64
  %7 = ptrtoint ptr %5 to i64
  %8 = sub i64 %6, %7
  %9 = ashr exact i64 %8, 4
  %10 = and i64 %8, 68719476720
  %.old1.not = icmp eq i64 %10, 0
  br i1 %.old1.not, label %_ZNK4llvm3rdf13DataFlowGraph8DefStack11isDelimiterERKNS0_8NodeAddrIPNS0_7DefNodeEEEj.exit.thread, label %.preheader

.preheader:                                       ; preds = %2
  %11 = icmp eq i32 %1, 0
  %12 = and i64 %9, 4294967295
  br i1 %11, label %.preheader.split.us, label %.preheader.split

.preheader.split.us:                              ; preds = %.preheader, %.preheader.split.us
  %indvars.iv17 = phi i64 [ %13, %.preheader.split.us ], [ %12, %.preheader ]
  %13 = add nsw i64 %indvars.iv17, -1
  %14 = getelementptr inbounds nuw %"struct.llvm::rdf::NodeAddr.65", ptr %5, i64 %13
  %15 = load ptr, ptr %14, align 8
  %16 = icmp eq ptr %15, null
  %.wide19 = icmp eq i64 %13, 0
  %or.cond = or i1 %16, %.wide19
  br i1 %or.cond, label %_ZNK4llvm3rdf13DataFlowGraph8DefStack11isDelimiterERKNS0_8NodeAddrIPNS0_7DefNodeEEEj.exit.thread, label %.preheader.split.us, !llvm.loop !33

.preheader.split:                                 ; preds = %.preheader, %_ZNK4llvm3rdf13DataFlowGraph8DefStack11isDelimiterERKNS0_8NodeAddrIPNS0_7DefNodeEEEj.exit
  %indvars.iv = phi i64 [ %17, %_ZNK4llvm3rdf13DataFlowGraph8DefStack11isDelimiterERKNS0_8NodeAddrIPNS0_7DefNodeEEEj.exit ], [ %12, %.preheader ]
  %17 = add nsw i64 %indvars.iv, -1
  %18 = getelementptr inbounds nuw %"struct.llvm::rdf::NodeAddr.65", ptr %5, i64 %17
  %19 = load ptr, ptr %18, align 8
  %20 = icmp eq ptr %19, null
  br i1 %20, label %21, label %_ZNK4llvm3rdf13DataFlowGraph8DefStack11isDelimiterERKNS0_8NodeAddrIPNS0_7DefNodeEEEj.exit

21:                                               ; preds = %.preheader.split
  %22 = getelementptr inbounds nuw i8, ptr %18, i64 8
  %23 = load i32, ptr %22, align 8
  %24 = icmp eq i32 %23, %1
  br label %_ZNK4llvm3rdf13DataFlowGraph8DefStack11isDelimiterERKNS0_8NodeAddrIPNS0_7DefNodeEEEj.exit

_ZNK4llvm3rdf13DataFlowGraph8DefStack11isDelimiterERKNS0_8NodeAddrIPNS0_7DefNodeEEEj.exit: ; preds = %.preheader.split, %21
  %25 = phi i1 [ false, %.preheader.split ], [ %24, %21 ]
  %.wide = icmp eq i64 %17, 0
  %or.cond.not = or i1 %.wide, %25
  br i1 %or.cond.not, label %_ZNK4llvm3rdf13DataFlowGraph8DefStack11isDelimiterERKNS0_8NodeAddrIPNS0_7DefNodeEEEj.exit.thread, label %.preheader.split, !llvm.loop !33

_ZNK4llvm3rdf13DataFlowGraph8DefStack11isDelimiterERKNS0_8NodeAddrIPNS0_7DefNodeEEEj.exit.thread: ; preds = %_ZNK4llvm3rdf13DataFlowGraph8DefStack11isDelimiterERKNS0_8NodeAddrIPNS0_7DefNodeEEEj.exit, %.preheader.split.us, %2
  %.1 = phi i64 [ 0, %2 ], [ %13, %.preheader.split.us ], [ %17, %_ZNK4llvm3rdf13DataFlowGraph8DefStack11isDelimiterERKNS0_8NodeAddrIPNS0_7DefNodeEEEj.exit ]
  %26 = and i64 %.1, 4294967295
  %27 = icmp ult i64 %9, %26
  br i1 %27, label %28, label %30

28:                                               ; preds = %_ZNK4llvm3rdf13DataFlowGraph8DefStack11isDelimiterERKNS0_8NodeAddrIPNS0_7DefNodeEEEj.exit.thread
  %29 = sub nuw nsw i64 %26, %9
  tail call void @_ZNSt6vectorIN4llvm3rdf8NodeAddrIPNS1_7DefNodeEEESaIS5_EE17_M_default_appendEm(ptr noundef nonnull align 8 dereferenceable(24) %0, i64 noundef %29)
  br label %_ZNSt6vectorIN4llvm3rdf8NodeAddrIPNS1_7DefNodeEEESaIS5_EE6resizeEm.exit

30:                                               ; preds = %_ZNK4llvm3rdf13DataFlowGraph8DefStack11isDelimiterERKNS0_8NodeAddrIPNS0_7DefNodeEEEj.exit.thread
  %31 = icmp ugt i64 %9, %26
  br i1 %31, label %32, label %_ZNSt6vectorIN4llvm3rdf8NodeAddrIPNS1_7DefNodeEEESaIS5_EE6resizeEm.exit

32:                                               ; preds = %30
  %33 = getelementptr inbounds nuw %"struct.llvm::rdf::NodeAddr.65", ptr %5, i64 %26
  %.not.i.i = icmp eq ptr %4, %33
  br i1 %.not.i.i, label %_ZNSt6vectorIN4llvm3rdf8NodeAddrIPNS1_7DefNodeEEESaIS5_EE6resizeEm.exit, label %34

34:                                               ; preds = %32
  store ptr %33, ptr %3, align 8
  br label %_ZNSt6vectorIN4llvm3rdf8NodeAddrIPNS1_7DefNodeEEESaIS5_EE6resizeEm.exit

_ZNSt6vectorIN4llvm3rdf8NodeAddrIPNS1_7DefNodeEEESaIS5_EE6resizeEm.exit: ; preds = %28, %30, %32, %34
  ret void
}